target datalayout = "e-m:e-p270:32:32-p271:32:32-p272:64:64-i64:64-i128:128-f80:128-n8:16:32:64-S128"
target triple = "x86_64-unknown-linux-gnu"

@drm_fb_swab.__print_once = internal unnamed_addr global i1 false, section ".data..read_mostly", align 1
@.str = private unnamed_addr constant [48 x i8] c"[drm] Format %p4cc has unsupported pixel size.\0A\00", align 1
@drm_fb_xrgb8888_to_rgb565.dst_pixsize = internal constant [4 x i8] c"\02\00\00\00", align 1
@drm_fb_xrgb8888_to_xrgb1555.dst_pixsize = internal constant [4 x i8] c"\02\00\00\00", align 1
@drm_fb_xrgb8888_to_argb1555.dst_pixsize = internal constant [4 x i8] c"\02\00\00\00", align 1
@drm_fb_xrgb8888_to_rgba5551.dst_pixsize = internal constant [4 x i8] c"\02\00\00\00", align 1
@drm_fb_xrgb8888_to_rgb888.dst_pixsize = internal constant [4 x i8] c"\03\00\00\00", align 1
@drm_fb_xrgb8888_to_argb8888.dst_pixsize = internal constant [4 x i8] c"\04\00\00\00", align 1
@drm_fb_xrgb8888_to_xrgb2101010.dst_pixsize = internal constant [4 x i8] c"\04\00\00\00", align 1
@drm_fb_xrgb8888_to_argb2101010.dst_pixsize = internal constant [4 x i8] c"\04\00\00\00", align 1
@drm_fb_blit.__print_once = internal unnamed_addr global i1 false, section ".data..read_mostly", align 1
@.str.1 = private unnamed_addr constant [55 x i8] c"[drm] No conversion helper from %p4cc to %p4cc found.\0A\00", align 1
@drm_fb_xrgb8888_to_xbgr8888.dst_pixsize = internal constant [4 x i8] c"\04\00\00\00", align 1
@drm_fb_xrgb8888_to_abgr8888.dst_pixsize = internal constant [4 x i8] c"\04\00\00\00", align 1

; Function Attrs: fn_ret_thunk_extern nounwind null_pointer_is_valid
define dso_local noundef i32 @drm_fb_blit(ptr nocapture noundef readonly %0, ptr noundef %1, i32 noundef %2, ptr nocapture noundef readonly %3, ptr nocapture noundef readonly %4, ptr nocapture noundef readonly %5, ptr nocapture noundef %6) #1 align 16 {
  %8 = alloca i8, align 1
  %9 = alloca i8, align 1
  %10 = alloca i32, align 4
  %11 = alloca i32, align 4
  store i32 %2, ptr %10, align 4
  call void @llvm.lifetime.start.p0(i64 4, ptr nonnull %11) #14
  store i32 0, ptr %11, align 4, !annotation !11
  %12 = getelementptr inbounds i8, ptr %4, i64 72
  %13 = load ptr, ptr %12, align 8
  %14 = load i32, ptr %13, align 4
  store i32 %14, ptr %11, align 4
  %15 = icmp eq i32 %14, %2
  br i1 %15, label %16, label %17

16:                                               ; preds = %7
  tail call void @drm_fb_memcpy(ptr noundef %0, ptr noundef %1, ptr noundef %3, ptr noundef %4, ptr noundef %5)
  br label %85

17:                                               ; preds = %7
  %18 = or i32 %2, -2147483648
  %19 = icmp eq i32 %14, %18
  br i1 %19, label %20, label %39

20:                                               ; preds = %17
  call void @llvm.lifetime.start.p0(i64 1, ptr nonnull %9) #14
  store i8 0, ptr %9, align 1, !annotation !11
  %21 = tail call i32 @drm_format_info_bpp(ptr noundef %13, i32 noundef 0) #14
  %22 = add i32 %21, 7
  %23 = lshr i32 %22, 3
  %24 = trunc i32 %23 to i8
  store i8 %24, ptr %9, align 1
  switch i8 %24, label %26 [
    i8 4, label %36
    i8 2, label %25
  ]

25:                                               ; preds = %20
  br label %36

26:                                               ; preds = %20
  %27 = load i1, ptr @drm_fb_swab.__print_once, align 1
  br i1 %27, label %38, label %28

28:                                               ; preds = %26
  store i1 true, ptr @drm_fb_swab.__print_once, align 1
  %29 = load ptr, ptr %4, align 8
  %30 = icmp eq ptr %29, null
  br i1 %30, label %34, label %31

31:                                               ; preds = %28
  %32 = getelementptr inbounds i8, ptr %29, i64 8
  %33 = load ptr, ptr %32, align 8
  br label %34

34:                                               ; preds = %31, %28
  %35 = phi ptr [ %33, %31 ], [ null, %28 ]
  tail call void (ptr, ptr, ...) @_dev_warn(ptr noundef %35, ptr noundef nonnull @.str, ptr noundef %13) #15
  br label %38

36:                                               ; preds = %25, %20
  %37 = phi ptr [ @drm_fb_swab16_line, %25 ], [ @drm_fb_swab32_line, %20 ]
  call fastcc void @drm_fb_xfrm(ptr noundef %0, ptr noundef %1, ptr noundef nonnull %9, ptr noundef %3, ptr noundef %4, ptr noundef %5, i1 noundef zeroext false, ptr noundef %6, ptr noundef nonnull %37)
  br label %38

38:                                               ; preds = %36, %34, %26
  call void @llvm.lifetime.end.p0(i64 1, ptr nonnull %9) #14
  br label %85

39:                                               ; preds = %17
  %40 = and i32 %2, 2147483647
  %41 = icmp eq i32 %14, %40
  br i1 %41, label %42, label %61

42:                                               ; preds = %39
  call void @llvm.lifetime.start.p0(i64 1, ptr nonnull %8) #14
  store i8 0, ptr %8, align 1, !annotation !11
  %43 = tail call i32 @drm_format_info_bpp(ptr noundef %13, i32 noundef 0) #14
  %44 = add i32 %43, 7
  %45 = lshr i32 %44, 3
  %46 = trunc i32 %45 to i8
  store i8 %46, ptr %8, align 1
  switch i8 %46, label %48 [
    i8 4, label %58
    i8 2, label %47
  ]

47:                                               ; preds = %42
  br label %58

48:                                               ; preds = %42
  %49 = load i1, ptr @drm_fb_swab.__print_once, align 1
  br i1 %49, label %60, label %50

50:                                               ; preds = %48
  store i1 true, ptr @drm_fb_swab.__print_once, align 1
  %51 = load ptr, ptr %4, align 8
  %52 = icmp eq ptr %51, null
  br i1 %52, label %56, label %53

53:                                               ; preds = %50
  %54 = getelementptr inbounds i8, ptr %51, i64 8
  %55 = load ptr, ptr %54, align 8
  br label %56

56:                                               ; preds = %53, %50
  %57 = phi ptr [ %55, %53 ], [ null, %50 ]
  tail call void (ptr, ptr, ...) @_dev_warn(ptr noundef %57, ptr noundef nonnull @.str, ptr noundef %13) #15
  br label %60

58:                                               ; preds = %47, %42
  %59 = phi ptr [ @drm_fb_swab16_line, %47 ], [ @drm_fb_swab32_line, %42 ]
  call fastcc void @drm_fb_xfrm(ptr noundef %0, ptr noundef %1, ptr noundef nonnull %8, ptr noundef %3, ptr noundef %4, ptr noundef %5, i1 noundef zeroext false, ptr noundef %6, ptr noundef nonnull %59)
  br label %60

60:                                               ; preds = %58, %56, %48
  call void @llvm.lifetime.end.p0(i64 1, ptr nonnull %8) #14
  br label %85

61:                                               ; preds = %39
  %62 = icmp eq i32 %14, 875713112
  br i1 %62, label %63, label %75

63:                                               ; preds = %61
  switch i32 %2, label %75 [
    i32 909199186, label %64
    i32 892424792, label %65
    i32 892424769, label %66
    i32 892420434, label %67
    i32 875710290, label %68
    i32 875713089, label %69
    i32 875709016, label %70
    i32 875708993, label %71
    i32 808669784, label %72
    i32 808669761, label %73
    i32 875714626, label %74
  ]

64:                                               ; preds = %63
  tail call fastcc void @drm_fb_xfrm(ptr noundef %0, ptr noundef %1, ptr noundef nonnull @drm_fb_xrgb8888_to_rgb565.dst_pixsize, ptr noundef %3, ptr noundef %4, ptr noundef %5, i1 noundef zeroext false, ptr noundef %6, ptr noundef nonnull @drm_fb_xrgb8888_to_rgb565_line)
  br label %85

65:                                               ; preds = %63
  tail call fastcc void @drm_fb_xfrm(ptr noundef %0, ptr noundef %1, ptr noundef nonnull @drm_fb_xrgb8888_to_xrgb1555.dst_pixsize, ptr noundef %3, ptr noundef %4, ptr noundef %5, i1 noundef zeroext false, ptr noundef %6, ptr noundef nonnull @drm_fb_xrgb8888_to_xrgb1555_line)
  br label %85

66:                                               ; preds = %63
  tail call fastcc void @drm_fb_xfrm(ptr noundef %0, ptr noundef %1, ptr noundef nonnull @drm_fb_xrgb8888_to_argb1555.dst_pixsize, ptr noundef %3, ptr noundef %4, ptr noundef %5, i1 noundef zeroext false, ptr noundef %6, ptr noundef nonnull @drm_fb_xrgb8888_to_argb1555_line)
  br label %85

67:                                               ; preds = %63
  tail call fastcc void @drm_fb_xfrm(ptr noundef %0, ptr noundef %1, ptr noundef nonnull @drm_fb_xrgb8888_to_rgba5551.dst_pixsize, ptr noundef %3, ptr noundef %4, ptr noundef %5, i1 noundef zeroext false, ptr noundef %6, ptr noundef nonnull @drm_fb_xrgb8888_to_rgba5551_line)
  br label %85

68:                                               ; preds = %63
  tail call fastcc void @drm_fb_xfrm(ptr noundef %0, ptr noundef %1, ptr noundef nonnull @drm_fb_xrgb8888_to_rgb888.dst_pixsize, ptr noundef %3, ptr noundef %4, ptr noundef %5, i1 noundef zeroext false, ptr noundef %6, ptr noundef nonnull @drm_fb_xrgb8888_to_rgb888_line)
  br label %85

69:                                               ; preds = %63
  tail call fastcc void @drm_fb_xfrm(ptr noundef %0, ptr noundef %1, ptr noundef nonnull @drm_fb_xrgb8888_to_argb8888.dst_pixsize, ptr noundef %3, ptr noundef %4, ptr noundef %5, i1 noundef zeroext false, ptr noundef %6, ptr noundef nonnull @drm_fb_xrgb8888_to_argb8888_line)
  br label %85

70:                                               ; preds = %63
  tail call fastcc void @drm_fb_xfrm(ptr noundef %0, ptr noundef %1, ptr noundef nonnull @drm_fb_xrgb8888_to_xbgr8888.dst_pixsize, ptr noundef %3, ptr noundef %4, ptr noundef %5, i1 noundef zeroext false, ptr noundef %6, ptr noundef nonnull @drm_fb_xrgb8888_to_xbgr8888_line)
  br label %85

71:                                               ; preds = %63
  tail call fastcc void @drm_fb_xfrm(ptr noundef %0, ptr noundef %1, ptr noundef nonnull @drm_fb_xrgb8888_to_abgr8888.dst_pixsize, ptr noundef %3, ptr noundef %4, ptr noundef %5, i1 noundef zeroext false, ptr noundef %6, ptr noundef nonnull @drm_fb_xrgb8888_to_abgr8888_line)
  br label %85

72:                                               ; preds = %63
  tail call fastcc void @drm_fb_xfrm(ptr noundef %0, ptr noundef %1, ptr noundef nonnull @drm_fb_xrgb8888_to_xrgb2101010.dst_pixsize, ptr noundef %3, ptr noundef %4, ptr noundef %5, i1 noundef zeroext false, ptr noundef %6, ptr noundef nonnull @drm_fb_xrgb8888_to_xrgb2101010_line)
  br label %85

73:                                               ; preds = %63
  tail call fastcc void @drm_fb_xfrm(ptr noundef %0, ptr noundef %1, ptr noundef nonnull @drm_fb_xrgb8888_to_argb2101010.dst_pixsize, ptr noundef %3, ptr noundef %4, ptr noundef %5, i1 noundef zeroext false, ptr noundef %6, ptr noundef nonnull @drm_fb_xrgb8888_to_argb2101010_line)
  br label %85

74:                                               ; preds = %63
  tail call void @drm_fb_swab(ptr noundef %0, ptr noundef %1, ptr noundef %3, ptr noundef %4, ptr noundef %5, i1 noundef zeroext false, ptr noundef %6)
  br label %85

75:                                               ; preds = %63, %61
  %76 = load i1, ptr @drm_fb_blit.__print_once, align 1
  br i1 %76, label %85, label %77

77:                                               ; preds = %75
  store i1 true, ptr @drm_fb_blit.__print_once, align 1
  %78 = load ptr, ptr %4, align 8
  %79 = icmp eq ptr %78, null
  br i1 %79, label %83, label %80

80:                                               ; preds = %77
  %81 = getelementptr inbounds i8, ptr %78, i64 8
  %82 = load ptr, ptr %81, align 8
  br label %83

83:                                               ; preds = %80, %77
  %84 = phi ptr [ %82, %80 ], [ null, %77 ]
  call void (ptr, ptr, ...) @_dev_warn(ptr noundef %84, ptr noundef nonnull @.str.1, ptr noundef nonnull %11, ptr noundef nonnull %10) #15
  br label %85

85:                                               ; preds = %83, %75, %74, %73, %72, %71, %70, %69, %68, %67, %66, %65, %64, %60, %38, %16
  %86 = phi i32 [ 0, %16 ], [ 0, %38 ], [ 0, %60 ], [ 0, %64 ], [ 0, %65 ], [ 0, %66 ], [ 0, %67 ], [ 0, %68 ], [ 0, %69 ], [ 0, %70 ], [ 0, %71 ], [ 0, %72 ], [ 0, %73 ], [ 0, %74 ], [ -22, %83 ], [ -22, %75 ]
  call void @llvm.lifetime.end.p0(i64 4, ptr nonnull %11) #14
  ret i32 %86
}