; Function Attrs: fn_ret_thunk_extern nounwind null_pointer_is_valid
define dso_local noundef i32 @drm_fb_blit(ptr nocapture noundef readonly %0, ptr noundef %1, i32 noundef %2, ptr nocapture noundef readonly %3, ptr nocapture noundef readonly %4, ptr nocapture noundef readonly %5, ptr nocapture noundef %6) #1 align 16 {
  %8 = alloca i32, align 4
  %9 = alloca i32, align 4
  store i32 %2, ptr %8, align 4
  call void @llvm.lifetime.start.p0(i64 4, ptr nonnull %9) #14
  %10 = getelementptr inbounds i8, ptr %4, i64 72
  %11 = load ptr, ptr %10, align 8
  %12 = load i32, ptr %11, align 4
  store i32 %12, ptr %9, align 4
  %13 = icmp eq i32 %12, %2
  br i1 %13, label %14, label %15

14:                                               ; preds = %7
  tail call void @drm_fb_memcpy(ptr noundef %0, ptr noundef %1, ptr noundef %3, ptr noundef %4, ptr noundef %5)
  br label %89

15:                                               ; preds = %7
  %16 = or i32 %2, -2147483648
  %17 = icmp eq i32 %12, %16
  br i1 %17, label %18, label %35

18:                                               ; preds = %15
  %19 = tail call i32 @drm_format_info_bpp(ptr noundef %11, i32 noundef 0) #14
  %20 = add i32 %19, 7
  %21 = lshr i32 %20, 3
  %22 = trunc i32 %21 to i8
  switch i8 %22, label %25 [
    i8 4, label %.split1
    i8 2, label %.split
  ]

.split1:                                          ; preds = %18
  %.val16 = load ptr, ptr %0, align 8
  %23 = getelementptr i8, ptr %0, i64 8
  %.val17 = load i8, ptr %23, align 8, !range !5, !noundef !6
  %.val19 = load ptr, ptr %3, align 8
  tail call fastcc void @drm_fb_xfrm(ptr %.val16, i8 %.val17, ptr noundef %1, i8 4, ptr %.val19, ptr noundef %4, ptr noundef %5, i1 noundef zeroext false, ptr noundef %6, ptr noundef nonnull @drm_fb_swab32_line)
  br label %89

.split:                                           ; preds = %18
  %.val20 = load ptr, ptr %0, align 8
  %24 = getelementptr i8, ptr %0, i64 8
  %.val21 = load i8, ptr %24, align 8, !range !5, !noundef !6
  %.val23 = load ptr, ptr %3, align 8
  tail call fastcc void @drm_fb_xfrm(ptr %.val20, i8 %.val21, ptr noundef %1, i8 2, ptr %.val23, ptr noundef %4, ptr noundef %5, i1 noundef zeroext false, ptr noundef %6, ptr noundef nonnull @drm_fb_swab16_line)
  br label %89

25:                                               ; preds = %18
  %26 = load i1, ptr @drm_fb_swab.__print_once, align 1
  br i1 %26, label %89, label %27

27:                                               ; preds = %25
  store i1 true, ptr @drm_fb_swab.__print_once, align 1
  %28 = load ptr, ptr %4, align 8
  %29 = icmp eq ptr %28, null
  br i1 %29, label %33, label %30

30:                                               ; preds = %27
  %31 = getelementptr inbounds i8, ptr %28, i64 8
  %32 = load ptr, ptr %31, align 8
  br label %33

33:                                               ; preds = %30, %27
  %34 = phi ptr [ %32, %30 ], [ null, %27 ]
  tail call void (ptr, ptr, ...) @_dev_warn(ptr noundef %34, ptr noundef nonnull @.str, ptr noundef %11) #15
  br label %89

35:                                               ; preds = %15
  %36 = and i32 %2, 2147483647
  %37 = icmp eq i32 %12, %36
  br i1 %37, label %38, label %55

38:                                               ; preds = %35
  %39 = tail call i32 @drm_format_info_bpp(ptr noundef %11, i32 noundef 0) #14
  %40 = add i32 %39, 7
  %41 = lshr i32 %40, 3
  %42 = trunc i32 %41 to i8
  switch i8 %42, label %45 [
    i8 4, label %.split4
    i8 2, label %.split3
  ]

.split4:                                          ; preds = %38
  %.val = load ptr, ptr %0, align 8
  %43 = getelementptr i8, ptr %0, i64 8
  %.val9 = load i8, ptr %43, align 8, !range !5, !noundef !6
  %.val11 = load ptr, ptr %3, align 8
  tail call fastcc void @drm_fb_xfrm(ptr %.val, i8 %.val9, ptr noundef %1, i8 4, ptr %.val11, ptr noundef %4, ptr noundef %5, i1 noundef zeroext false, ptr noundef %6, ptr noundef nonnull @drm_fb_swab32_line)
  br label %89

.split3:                                          ; preds = %38
  %.val12 = load ptr, ptr %0, align 8
  %44 = getelementptr i8, ptr %0, i64 8
  %.val13 = load i8, ptr %44, align 8, !range !5, !noundef !6
  %.val15 = load ptr, ptr %3, align 8
  tail call fastcc void @drm_fb_xfrm(ptr %.val12, i8 %.val13, ptr noundef %1, i8 2, ptr %.val15, ptr noundef %4, ptr noundef %5, i1 noundef zeroext false, ptr noundef %6, ptr noundef nonnull @drm_fb_swab16_line)
  br label %89

45:                                               ; preds = %38
  %46 = load i1, ptr @drm_fb_swab.__print_once, align 1
  br i1 %46, label %89, label %47

47:                                               ; preds = %45
  store i1 true, ptr @drm_fb_swab.__print_once, align 1
  %48 = load ptr, ptr %4, align 8
  %49 = icmp eq ptr %48, null
  br i1 %49, label %53, label %50

50:                                               ; preds = %47
  %51 = getelementptr inbounds i8, ptr %48, i64 8
  %52 = load ptr, ptr %51, align 8
  br label %53

53:                                               ; preds = %50, %47
  %54 = phi ptr [ %52, %50 ], [ null, %47 ]
  tail call void (ptr, ptr, ...) @_dev_warn(ptr noundef %54, ptr noundef nonnull @.str, ptr noundef %11) #15
  br label %89

55:                                               ; preds = %35
  %56 = icmp eq i32 %12, 875713112
  br i1 %56, label %57, label %79

57:                                               ; preds = %55
  switch i32 %2, label %79 [
    i32 909199186, label %58
    i32 892424792, label %60
    i32 892424769, label %62
    i32 892420434, label %64
    i32 875710290, label %66
    i32 875713089, label %68
    i32 875709016, label %70
    i32 875708993, label %72
    i32 808669784, label %74
    i32 808669761, label %76
    i32 875714626, label %78
  ]

58:                                               ; preds = %57
  %.val51 = load ptr, ptr %0, align 8
  %59 = getelementptr i8, ptr %0, i64 8
  %.val52 = load i8, ptr %59, align 8, !range !5, !noundef !6
  %.val53 = load ptr, ptr %3, align 8
  tail call fastcc void @drm_fb_xfrm(ptr %.val51, i8 %.val52, ptr noundef %1, i8 2, ptr %.val53, ptr noundef %4, ptr noundef %5, i1 noundef zeroext false, ptr noundef %6, ptr noundef nonnull @drm_fb_xrgb8888_to_rgb565_line)
  br label %89

60:                                               ; preds = %57
  %.val48 = load ptr, ptr %0, align 8
  %61 = getelementptr i8, ptr %0, i64 8
  %.val49 = load i8, ptr %61, align 8, !range !5, !noundef !6
  %.val50 = load ptr, ptr %3, align 8
  tail call fastcc void @drm_fb_xfrm(ptr %.val48, i8 %.val49, ptr noundef %1, i8 2, ptr %.val50, ptr noundef %4, ptr noundef %5, i1 noundef zeroext false, ptr noundef %6, ptr noundef nonnull @drm_fb_xrgb8888_to_xrgb1555_line)
  br label %89

62:                                               ; preds = %57
  %.val45 = load ptr, ptr %0, align 8
  %63 = getelementptr i8, ptr %0, i64 8
  %.val46 = load i8, ptr %63, align 8, !range !5, !noundef !6
  %.val47 = load ptr, ptr %3, align 8
  tail call fastcc void @drm_fb_xfrm(ptr %.val45, i8 %.val46, ptr noundef %1, i8 2, ptr %.val47, ptr noundef %4, ptr noundef %5, i1 noundef zeroext false, ptr noundef %6, ptr noundef nonnull @drm_fb_xrgb8888_to_argb1555_line)
  br label %89

64:                                               ; preds = %57
  %.val42 = load ptr, ptr %0, align 8
  %65 = getelementptr i8, ptr %0, i64 8
  %.val43 = load i8, ptr %65, align 8, !range !5, !noundef !6
  %.val44 = load ptr, ptr %3, align 8
  tail call fastcc void @drm_fb_xfrm(ptr %.val42, i8 %.val43, ptr noundef %1, i8 2, ptr %.val44, ptr noundef %4, ptr noundef %5, i1 noundef zeroext false, ptr noundef %6, ptr noundef nonnull @drm_fb_xrgb8888_to_rgba5551_line)
  br label %89

66:                                               ; preds = %57
  %.val39 = load ptr, ptr %0, align 8
  %67 = getelementptr i8, ptr %0, i64 8
  %.val40 = load i8, ptr %67, align 8, !range !5, !noundef !6
  %.val41 = load ptr, ptr %3, align 8
  tail call fastcc void @drm_fb_xfrm(ptr %.val39, i8 %.val40, ptr noundef %1, i8 3, ptr %.val41, ptr noundef %4, ptr noundef %5, i1 noundef zeroext false, ptr noundef %6, ptr noundef nonnull @drm_fb_xrgb8888_to_rgb888_line)
  br label %89

68:                                               ; preds = %57
  %.val36 = load ptr, ptr %0, align 8
  %69 = getelementptr i8, ptr %0, i64 8
  %.val37 = load i8, ptr %69, align 8, !range !5, !noundef !6
  %.val38 = load ptr, ptr %3, align 8
  tail call fastcc void @drm_fb_xfrm(ptr %.val36, i8 %.val37, ptr noundef %1, i8 4, ptr %.val38, ptr noundef %4, ptr noundef %5, i1 noundef zeroext false, ptr noundef %6, ptr noundef nonnull @drm_fb_xrgb8888_to_argb8888_line)
  br label %89

70:                                               ; preds = %57
  %.val33 = load ptr, ptr %0, align 8
  %71 = getelementptr i8, ptr %0, i64 8
  %.val34 = load i8, ptr %71, align 8, !range !5, !noundef !6
  %.val35 = load ptr, ptr %3, align 8
  tail call fastcc void @drm_fb_xfrm(ptr %.val33, i8 %.val34, ptr noundef %1, i8 4, ptr %.val35, ptr noundef %4, ptr noundef %5, i1 noundef zeroext false, ptr noundef %6, ptr noundef nonnull @drm_fb_xrgb8888_to_xbgr8888_line)
  br label %89

72:                                               ; preds = %57
  %.val30 = load ptr, ptr %0, align 8
  %73 = getelementptr i8, ptr %0, i64 8
  %.val31 = load i8, ptr %73, align 8, !range !5, !noundef !6
  %.val32 = load ptr, ptr %3, align 8
  tail call fastcc void @drm_fb_xfrm(ptr %.val30, i8 %.val31, ptr noundef %1, i8 4, ptr %.val32, ptr noundef %4, ptr noundef %5, i1 noundef zeroext false, ptr noundef %6, ptr noundef nonnull @drm_fb_xrgb8888_to_abgr8888_line)
  br label %89

74:                                               ; preds = %57
  %.val27 = load ptr, ptr %0, align 8
  %75 = getelementptr i8, ptr %0, i64 8
  %.val28 = load i8, ptr %75, align 8, !range !5, !noundef !6
  %.val29 = load ptr, ptr %3, align 8
  tail call fastcc void @drm_fb_xfrm(ptr %.val27, i8 %.val28, ptr noundef %1, i8 4, ptr %.val29, ptr noundef %4, ptr noundef %5, i1 noundef zeroext false, ptr noundef %6, ptr noundef nonnull @drm_fb_xrgb8888_to_xrgb2101010_line)
  br label %89

76:                                               ; preds = %57
  %.val24 = load ptr, ptr %0, align 8
  %77 = getelementptr i8, ptr %0, i64 8
  %.val25 = load i8, ptr %77, align 8, !range !5, !noundef !6
  %.val26 = load ptr, ptr %3, align 8
  tail call fastcc void @drm_fb_xfrm(ptr %.val24, i8 %.val25, ptr noundef %1, i8 4, ptr %.val26, ptr noundef %4, ptr noundef %5, i1 noundef zeroext false, ptr noundef %6, ptr noundef nonnull @drm_fb_xrgb8888_to_argb2101010_line)
  br label %89

78:                                               ; preds = %57
  tail call void @drm_fb_swab(ptr noundef %0, ptr noundef %1, ptr noundef %3, ptr noundef %4, ptr noundef %5, i1 noundef zeroext false, ptr noundef %6)
  br label %89

79:                                               ; preds = %57, %55
  %80 = load i1, ptr @drm_fb_blit.__print_once, align 1
  br i1 %80, label %89, label %81

81:                                               ; preds = %79
  store i1 true, ptr @drm_fb_blit.__print_once, align 1
  %82 = load ptr, ptr %4, align 8
  %83 = icmp eq ptr %82, null
  br i1 %83, label %87, label %84

84:                                               ; preds = %81
  %85 = getelementptr inbounds i8, ptr %82, i64 8
  %86 = load ptr, ptr %85, align 8
  br label %87

87:                                               ; preds = %84, %81
  %88 = phi ptr [ %86, %84 ], [ null, %81 ]
  call void (ptr, ptr, ...) @_dev_warn(ptr noundef %88, ptr noundef nonnull @.str.1, ptr noundef nonnull %9, ptr noundef nonnull %8) #15
  br label %89

89:                                               ; preds = %45, %53, %.split4, %.split3, %25, %33, %.split1, %.split, %87, %79, %78, %76, %74, %72, %70, %68, %66, %64, %62, %60, %58, %14
  %90 = phi i32 [ 0, %14 ], [ 0, %58 ], [ 0, %60 ], [ 0, %62 ], [ 0, %64 ], [ 0, %66 ], [ 0, %68 ], [ 0, %70 ], [ 0, %72 ], [ 0, %74 ], [ 0, %76 ], [ 0, %78 ], [ -22, %87 ], [ -22, %79 ], [ 0, %.split ], [ 0, %.split1 ], [ 0, %33 ], [ 0, %25 ], [ 0, %.split3 ], [ 0, %.split4 ], [ 0, %53 ], [ 0, %45 ]
  call void @llvm.lifetime.end.p0(i64 4, ptr nonnull %9) #14
  ret i32 %90
}